; Function Attrs: mustprogress uwtable
define void @_ZNK3gmx4Bias24printInitializationToLogEP8_IO_FILE(ptr nocapture noundef nonnull readonly align 8 dereferenceable(556) %0, ptr noundef %1) local_unnamed_addr #0 align 2 personality ptr @__gxx_personality_v0 {
  %3 = alloca %"class.std::__cxx11::basic_string", align 8
  %.not = icmp eq ptr %1, null
  br i1 %.not, label %27, label %4

4:                                                ; preds = %2
  %5 = getelementptr inbounds i8, ptr %0, i64 488
  %6 = load ptr, ptr %5, align 8
  %.not10 = icmp eq ptr %6, null
  br i1 %.not10, label %27, label %7

7:                                                ; preds = %4
  %8 = getelementptr inbounds i8, ptr %0, i64 204
  %9 = load i32, ptr %8, align 4
  %10 = add nsw i32 %9, 1
  call void (ptr, ptr, ...) @_ZN3gmx12formatStringB5cxx11EPKcz(ptr dead_on_unwind nonnull writable sret(%"class.std::__cxx11::basic_string") align 8 %3, ptr noundef nonnull @.str.21, i32 noundef %10)
  %11 = call noundef ptr @_ZNKSt7__cxx1112basic_stringIcSt11char_traitsIcESaIcEE5c_strEv(ptr noundef nonnull align 8 dereferenceable(32) %3) #15
  %12 = load ptr, ptr %5, align 8
  %.not.i = icmp eq ptr %12, null
  br i1 %.not.i, label %.invoke, label %_ZNK3gmx4Bias20forceCorrelationGridEv.exit

_ZNK3gmx4Bias20forceCorrelationGridEv.exit:       ; preds = %7
  %13 = invoke noundef double @_ZNK3gmx15CorrelationGrid14getBlockLengthEv(ptr noundef nonnull align 8 dereferenceable(40) %12)
          to label %14 unwind label %25

14:                                               ; preds = %_ZNK3gmx4Bias20forceCorrelationGridEv.exit
  %15 = load ptr, ptr %5, align 8
  %.not.i4 = icmp eq ptr %15, null
  br i1 %.not.i4, label %.invoke, label %_ZNK3gmx4Bias20forceCorrelationGridEv.exit6

_ZNK3gmx4Bias20forceCorrelationGridEv.exit6:      ; preds = %14
  %16 = getelementptr inbounds i8, ptr %15, i64 8
  %17 = load i32, ptr %16, align 8
  %18 = icmp eq i32 %17, 1
  %19 = select i1 %18, ptr @.str.23, ptr @.str.24
  %20 = call noundef ptr @_ZNKSt7__cxx1112basic_stringIcSt11char_traitsIcESaIcEE5c_strEv(ptr noundef nonnull align 8 dereferenceable(32) %3) #15
  %21 = load ptr, ptr %5, align 8
  %.not.i7 = icmp eq ptr %21, null
  br i1 %.not.i7, label %.invoke, label %_ZNK3gmx4Bias20forceCorrelationGridEv.exit9

.invoke:                                          ; preds = %_ZNK3gmx4Bias20forceCorrelationGridEv.exit6, %14, %7
  invoke void @_ZN3gmx8internal13assertHandlerEPKcS2_S2_S2_i(ptr noundef nonnull @.str.8, ptr noundef nonnull @.str.9, ptr noundef nonnull @__PRETTY_FUNCTION__._ZZNK3gmx4Bias20forceCorrelationGridEvENKUlvE_clEv, ptr noundef nonnull @.str.10, i32 noundef 337) #16
          to label %.cont unwind label %25

.cont:                                            ; preds = %.invoke
  unreachable

_ZNK3gmx4Bias20forceCorrelationGridEv.exit9:      ; preds = %_ZNK3gmx4Bias20forceCorrelationGridEv.exit6
  %22 = invoke noundef i32 @_ZNK3gmx15CorrelationGrid12getNumBlocksEv(ptr noundef nonnull align 8 dereferenceable(40) %21)
          to label %23 unwind label %25

23:                                               ; preds = %_ZNK3gmx4Bias20forceCorrelationGridEv.exit9
  %24 = call i32 (ptr, ptr, ...) @fprintf(ptr noundef nonnull %1, ptr noundef nonnull @.str.22, ptr noundef %11, double noundef %13, ptr noundef nonnull %19, ptr noundef %20, i32 noundef %22) #15
  call void @_ZNSt7__cxx1112basic_stringIcSt11char_traitsIcESaIcEED1Ev(ptr noundef nonnull align 8 dereferenceable(32) %3) #15
  br label %27

25:                                               ; preds = %.invoke, %_ZNK3gmx4Bias20forceCorrelationGridEv.exit9, %_ZNK3gmx4Bias20forceCorrelationGridEv.exit
  %26 = landingpad { ptr, i32 }
          cleanup
  call void @_ZNSt7__cxx1112basic_stringIcSt11char_traitsIcESaIcEED1Ev(ptr noundef nonnull align 8 dereferenceable(32) %3) #15
  resume { ptr, i32 } %26

27:                                               ; preds = %23, %4, %2
  ret void
}